; Function Attrs: mustprogress uwtable
define dso_local noundef float @_ZNK21btUniformScalingShape9getMarginEv(ptr nocapture noundef nonnull readonly align 8 dereferenceable(44) %this) unnamed_addr #0 align 2 {
entry:
  %m_childConvexShape = getelementptr inbounds i8, ptr %this, i64 32
  %0 = load ptr, ptr %m_childConvexShape, align 8
  %vtable = load ptr, ptr %0, align 8
  %vfn = getelementptr inbounds i8, ptr %vtable, i64 96
  %1 = load ptr, ptr %vfn, align 8
  %call = tail call noundef float %1(ptr noundef nonnull align 8 dereferenceable(32) %0)
  %m_uniformScalingFactor = getelementptr inbounds i8, ptr %this, i64 40
  %2 = load float, ptr %m_uniformScalingFactor, align 8
  %mul = fmul float %call, %2
  ret float %mul
}